; Function Attrs: mustprogress nofree norecurse nosync nounwind willreturn memory(read, inaccessiblemem: none) uwtable
define hidden noundef i32 @_ZN3smt11theory_char14get_char_valueEi(ptr nocapture noundef nonnull readonly align 8 dereferenceable(384) %this, i32 noundef %v) local_unnamed_addr #6 align 2 {
entry:
  %m_var2value = getelementptr inbounds i8, ptr %this, i64 208
  %0 = load ptr, ptr %m_var2value, align 8
  %idxprom.i = zext i32 %v to i64
  %arrayidx.i = getelementptr inbounds i32, ptr %0, i64 %idxprom.i
  %1 = load i32, ptr %arrayidx.i, align 4
  ret i32 %1
}